target datalayout = "e-m:e-p270:32:32-p271:32:32-p272:64:64-i64:64-i128:128-f80:128-n8:16:32:64-S128"
target triple = "x86_64-pc-linux-gnu"

%struct.EVP_RC4_HMAC_MD5 = type { %struct.rc4_key_st, %struct.MD5state_st, %struct.MD5state_st, %struct.MD5state_st, i64 }
%struct.rc4_key_st = type { i32, i32, [256 x i32] }
%struct.MD5state_st = type { i32, i32, i32, i32, i32, i32, [16 x i32], i32 }

; Function Attrs: nounwind uwtable
define internal i32 @rc4_hmac_md5_init_key(ptr noundef %0, ptr noundef %1, ptr noundef %2, i32 noundef %3) #0 {
  %5 = alloca i32, align 4
  %6 = alloca ptr, align 8
  %7 = alloca ptr, align 8
  %8 = alloca ptr, align 8
  %9 = alloca i32, align 4
  %10 = alloca ptr, align 8
  %11 = alloca i32, align 4
  %12 = alloca i32, align 4
  store ptr %0, ptr %6, align 8, !tbaa !3
  store ptr %1, ptr %7, align 8, !tbaa !8
  store ptr %2, ptr %8, align 8, !tbaa !8
  store i32 %3, ptr %9, align 4, !tbaa !10
  call void @llvm.lifetime.start.p0(i64 8, ptr %10) #5
  %13 = load ptr, ptr %6, align 8, !tbaa !3
  %14 = call ptr @EVP_CIPHER_CTX_get_cipher_data(ptr noundef %13)
  store ptr %14, ptr %10, align 8, !tbaa !12
  call void @llvm.lifetime.start.p0(i64 4, ptr %11) #5
  %15 = load ptr, ptr %6, align 8, !tbaa !3
  %16 = call i32 @EVP_CIPHER_CTX_get_key_length(ptr noundef %15)
  store i32 %16, ptr %11, align 4, !tbaa !10
  %17 = load i32, ptr %11, align 4, !tbaa !10
  %18 = icmp sle i32 %17, 0
  br i1 %18, label %19, label %20

19:                                               ; preds = %4
  store i32 0, ptr %5, align 4
  store i32 1, ptr %12, align 4
  br label %38

20:                                               ; preds = %4
  %21 = load ptr, ptr %10, align 8, !tbaa !12
  %22 = getelementptr inbounds nuw %struct.EVP_RC4_HMAC_MD5, ptr %21, i32 0, i32 0
  %23 = load i32, ptr %11, align 4, !tbaa !10
  %24 = load ptr, ptr %7, align 8, !tbaa !8
  call void @RC4_set_key(ptr noundef %22, i32 noundef %23, ptr noundef %24)
  %25 = load ptr, ptr %10, align 8, !tbaa !12
  %26 = getelementptr inbounds nuw %struct.EVP_RC4_HMAC_MD5, ptr %25, i32 0, i32 1
  %27 = call i32 @MD5_Init(ptr noundef %26)
  %28 = load ptr, ptr %10, align 8, !tbaa !12
  %29 = getelementptr inbounds nuw %struct.EVP_RC4_HMAC_MD5, ptr %28, i32 0, i32 2
  %30 = load ptr, ptr %10, align 8, !tbaa !12
  %31 = getelementptr inbounds nuw %struct.EVP_RC4_HMAC_MD5, ptr %30, i32 0, i32 1
  call void @llvm.memcpy.p0.p0.i64(ptr align 4 %29, ptr align 8 %31, i64 92, i1 false), !tbaa.struct !13
  %32 = load ptr, ptr %10, align 8, !tbaa !12
  %33 = getelementptr inbounds nuw %struct.EVP_RC4_HMAC_MD5, ptr %32, i32 0, i32 3
  %34 = load ptr, ptr %10, align 8, !tbaa !12
  %35 = getelementptr inbounds nuw %struct.EVP_RC4_HMAC_MD5, ptr %34, i32 0, i32 1
  call void @llvm.memcpy.p0.p0.i64(ptr align 8 %33, ptr align 8 %35, i64 92, i1 false), !tbaa.struct !13
  %36 = load ptr, ptr %10, align 8, !tbaa !12
  %37 = getelementptr inbounds nuw %struct.EVP_RC4_HMAC_MD5, ptr %36, i32 0, i32 4
  store i64 -1, ptr %37, align 8, !tbaa !15
  store i32 1, ptr %5, align 4
  store i32 1, ptr %12, align 4
  br label %38

38:                                               ; preds = %20, %19
  call void @llvm.lifetime.end.p0(i64 4, ptr %11) #5
  call void @llvm.lifetime.end.p0(i64 8, ptr %10) #5
  %39 = load i32, ptr %5, align 4
  ret i32 %39
}