; Function Attrs: nounwind uwtable
define internal range(i32 0, 2) i32 @rc4_hmac_md5_init_key(ptr noundef %0, ptr noundef %1, ptr readnone captures(none) %2, i32 %3) #1 {
  %5 = tail call ptr @EVP_CIPHER_CTX_get_cipher_data(ptr noundef %0) #6
  %6 = tail call i32 @EVP_CIPHER_CTX_get_key_length(ptr noundef %0) #6
  %7 = icmp slt i32 %6, 1
  br i1 %7, label %14, label %8

8:                                                ; preds = %4
  tail call void @RC4_set_key(ptr noundef %5, i32 noundef %6, ptr noundef %1) #6
  %9 = getelementptr inbounds nuw i8, ptr %5, i64 1032
  %10 = tail call i32 @MD5_Init(ptr noundef nonnull %9) #6
  %11 = getelementptr inbounds nuw i8, ptr %5, i64 1124
  tail call void @llvm.memcpy.p0.p0.i64(ptr noundef nonnull align 4 dereferenceable(92) %11, ptr noundef nonnull align 8 dereferenceable(92) %9, i64 92, i1 false), !tbaa.struct !3
  %12 = getelementptr inbounds nuw i8, ptr %5, i64 1216
  tail call void @llvm.memcpy.p0.p0.i64(ptr noundef nonnull align 8 dereferenceable(92) %12, ptr noundef nonnull align 8 dereferenceable(92) %9, i64 92, i1 false), !tbaa.struct !3
  %13 = getelementptr inbounds nuw i8, ptr %5, i64 1312
  store i64 -1, ptr %13, align 8, !tbaa !9
  br label %14

14:                                               ; preds = %4, %8
  %.0 = phi i32 [ 1, %8 ], [ 0, %4 ]
  ret i32 %.0
}